(dp0
S'METTS MARK'
p1
(dp2
S'to_messages'
p3
I807
sS'deferral_payments'
p4
S'NaN'
p5
sS'expenses'
p6
I94299
sS'poi'
p7
I00
sS'poi_total_messages'
p8
F39.0
sS'deferred_income'
p9
g5
sS'bonus_salary_ratio'
p10
F965788.0
sS'long_term_incentive'
p11
g5
sS'email_address'
p12
S'mark.metts@enron.com'
p13
sS'restricted_stock_deferred'
p14
g5
sS'shared_receipt_with_poi'
p15
I702
sS'loan_advances'
p16
g5
sS'from_messages'
p17
I29
sS'other'
p18
I1740
sS'director_fees'
p19
g5
sS'bonus'
p20
I600000
sS'total_stock_value'
p21
I585062
sS'from_poi_to_this_person'
p22
I38
sS'from_this_person_to_poi'
p23
I1
sS'restricted_stock'
p24
I585062
sS'salary'
p25
I365788
sS'total_payments'
p26
I1061827
sS'exercised_stock_options'
p27
g5
ssS'SHERRIFF JOHN R'
p28
(dp29
g3
I3187
sg4
g5
sg6
g5
sg7
I00
sg8
F51.0
sg9
g5
sg10
F1928780.0
sg11
I554422
sg12
S'john.sherriff@enron.com'
p30
sg14
g5
sg15
I2103
sg16
g5
sg17
I92
sg18
I1852186
sg19
g5
sg20
I1500000
sg21
I3128982
sg22
I28
sg23
I23
sg24
I1293424
sg25
I428780
sg26
I4335388
sg27
I1835558
ssS'BOWEN JR RAYMOND M'
p31
(dp32
g3
I1858
sg4
g5
sg6
I65907
sg7
I01
sg8
F155.0
sg9
I-833
sg10
F1628601.0
sg11
I974293
sg12
S'raymond.bowen@enron.com'
p33
sg14
g5
sg15
I1593
sg16
g5
sg17
I27
sg18
I1621
sg19
g5
sg20
I1350000
sg21
I252055
sg22
I140
sg23
I15
sg24
I252055
sg25
I278601
sg26
I2669589
sg27
g5
ssS'HANNON KEVIN P'
p34
(dp35
g3
I1045
sg4
g5
sg6
I34039
sg7
I01
sg8
F53.0
sg9
I-3117011
sg10
F1743293.0
sg11
I1617011
sg12
S'kevin.hannon@enron.com'
p36
sg14
g5
sg15
I1035
sg16
g5
sg17
I32
sg18
I11350
sg19
g5
sg20
I1500000
sg21
I6391065
sg22
I32
sg23
I21
sg24
I853064
sg25
I243293
sg26
I288682
sg27
I5538001
ssS'RICE KENNETH D'
p37
(dp38
g3
I905
sg4
g5
sg6
I46950
sg7
I01
sg8
F46.0
sg9
I-3504386
sg10
F2170636.0
sg11
I1617011
sg12
S'ken.rice@enron.com'
p39
sg14
g5
sg15
I864
sg16
g5
sg17
I18
sg18
I174839
sg19
g5
sg20
I1750000
sg21
I22542539
sg22
I42
sg23
I4
sg24
I2748364
sg25
I420636
sg26
I505050
sg27
I19794175
ssS'CAUSEY RICHARD A'
p40
(dp41
g3
I1892
sg4
g5
sg6
I30674
sg7
I01
sg8
F70.0
sg9
I-235000
sg10
F1415189.0
sg11
I350000
sg12
S'richard.causey@enron.com'
p42
sg14
g5
sg15
I1585
sg16
g5
sg17
I49
sg18
I307895
sg19
g5
sg20
I1000000
sg21
I2502063
sg22
I58
sg23
I12
sg24
I2502063
sg25
I415189
sg26
I1868758
sg27
g5
ssS'FITZGERALD JAY L'
p43
(dp44
g3
I936
sg4
g5
sg6
I23870
sg7
I00
sg8
F9.0
sg9
g5
sg10
F549157.0
sg11
I556416
sg12
S'jay.fitzgerald@enron.com'
p45
sg14
g5
sg15
I723
sg16
g5
sg17
I16
sg18
I285414
sg19
g5
sg20
I350000
sg21
I1621236
sg22
I1
sg23
I8
sg24
I956775
sg25
I199157
sg26
I1414857
sg27
I664461
ssS'MCMAHON JEFFREY'
p46
(dp47
g3
I2355
sg4
g5
sg6
I137108
sg7
I00
sg8
F84.0
sg9
g5
sg10
F2970448.0
sg11
I694862
sg12
S'jeffrey.mcmahon@enron.com'
p48
sg14
g5
sg15
I2228
sg16
g5
sg17
I48
sg18
I297353
sg19
g5
sg20
I2600000
sg21
I1662855
sg22
I58
sg23
I26
sg24
I558801
sg25
I370448
sg26
I4099771
sg27
I1104054
ssS'REDMOND BRIAN L'
p49
(dp50
g3
I1671
sg4
g5
sg6
I14689
sg7
I00
sg8
F253.0
sg9
g5
sg10
F96840.0
sg11
g5
sg12
S'brian.redmond@enron.com'
p51
sg14
g5
sg15
I1063
sg16
g5
sg17
I221
sg18
g5
sg19
g5
sg20
g5
sg21
I7890324
sg22
I204
sg23
I49
sg24
I381285
sg25
I96840
sg26
I111529
sg27
I7509039
ssS'LAVORATO JOHN J'
p52
(dp53
g3
I7259
sg4
g5
sg6
I49537
sg7
I00
sg8
F939.0
sg9
g5
sg10
F8339288.0
sg11
I2035380
sg12
S'john.lavorato@enron.com'
p54
sg14
g5
sg15
I3962
sg16
g5
sg17
I2585
sg18
I1552
sg19
g5
sg20
I8000000
sg21
I5167144
sg22
I528
sg23
I411
sg24
I1008149
sg25
I339288
sg26
I10425757
sg27
I4158995
ssS'HAEDICKE MARK E'
p55
(dp56
g3
I4009
sg4
I2157527
sg6
I76169
sg7
I00
sg8
F241.0
sg9
I-934484
sg10
F1524125.0
sg11
I983346
sg12
S'mark.haedicke@enron.com'
p57
sg14
I-329825
sg15
I1847
sg16
g5
sg17
I1941
sg18
I52382
sg19
g5
sg20
I1150000
sg21
I803094
sg22
I180
sg23
I61
sg24
I524169
sg25
I374125
sg26
I3859065
sg27
I608750
ssS'DURAN WILLIAM D'
p58
(dp59
g3
I904
sg4
g5
sg6
I25785
sg7
I00
sg8
F109.0
sg9
g5
sg10
F960692.0
sg11
I1105218
sg12
S'w.duran@enron.com'
p60
sg14
g5
sg15
I599
sg16
g5
sg17
I12
sg18
I1568
sg19
g5
sg20
I750000
sg21
I1640910
sg22
I106
sg23
I3
sg24
I189041
sg25
I210692
sg26
I2093263
sg27
I1451869
ssS'DIETRICH JANET R'
p61
(dp62
g3
I2572
sg4
g5
sg6
I3475
sg7
I00
sg8
F319.0
sg9
g5
sg10
F850100.0
sg11
I556416
sg12
S'janet.dietrich@enron.com'
p63
sg14
g5
sg15
I1902
sg16
g5
sg17
I63
sg18
I473
sg19
g5
sg20
I600000
sg21
I1865087
sg22
I305
sg23
I14
sg24
I315068
sg25
I250100
sg26
I1410464
sg27
I1550019
ssS'PIPER GREGORY F'
p64
(dp65
g3
I1238
sg4
I1130036
sg6
I43057
sg7
I00
sg8
F109.0
sg9
I-33333
sg10
F597091.0
sg11
g5
sg12
S'greg.piper@enron.com'
p66
sg14
I-409554
sg15
I742
sg16
g5
sg17
I222
sg18
I778
sg19
g5
sg20
I400000
sg21
I880290
sg22
I61
sg23
I48
sg24
I409554
sg25
I197091
sg26
I1737629
sg27
I880290
ssS'HUMPHREY GENE E'
p67
(dp68
g3
I128
sg4
I2964506
sg6
I4994
sg7
I00
sg8
F27.0
sg9
g5
sg10
F130724.0
sg11
g5
sg12
S'gene.humphrey@enron.com'
p69
sg14
g5
sg15
I119
sg16
g5
sg17
I17
sg18
g5
sg19
g5
sg20
g5
sg21
I2282768
sg22
I10
sg23
I17
sg24
g5
sg25
I130724
sg26
I3100224
sg27
I2282768
ssS'DERRICK JR. JAMES V'
p70
(dp71
g3
I2181
sg4
g5
sg6
I51124
sg7
I00
sg8
F84.0
sg9
I-1284000
sg10
F1292375.0
sg11
I484000
sg12
S'james.derrick@enron.com'
p72
sg14
I-1787380
sg15
I1401
sg16
g5
sg17
I909
sg18
I7482
sg19
g5
sg20
I800000
sg21
I8831913
sg22
I64
sg23
I20
sg24
I1787380
sg25
I492375
sg26
I550981
sg27
I8831913
ssS'MURRAY JULIA H'
p73
(dp74
g3
I2192
sg4
g5
sg6
I57580
sg7
I00
sg8
F13.0
sg9
g5
sg10
F629284.0
sg11
I125000
sg12
S'julia.murray@enron.com'
p75
sg14
g5
sg15
I395
sg16
g5
sg17
I45
sg18
I330
sg19
g5
sg20
I400000
sg21
I597461
sg22
I11
sg23
I2
sg24
I196983
sg25
I229284
sg26
I812194
sg27
I400478
ssS'GARLAND C KEVIN'
p76
(dp77
g3
I209
sg4
g5
sg6
I48405
sg7
I00
sg8
F37.0
sg9
g5
sg10
F1081946.0
sg11
I375304
sg12
S'kevin.garland@enron.com'
p78
sg14
g5
sg15
I178
sg16
g5
sg17
I44
sg18
I60814
sg19
g5
sg20
I850000
sg21
I896153
sg22
I10
sg23
I27
sg24
I259907
sg25
I231946
sg26
I1566469
sg27
I636246
ssS'BANNANTINE JAMES M'
p79
(dp80
g3
I566
sg4
g5
sg6
I56301
sg7
I00
sg8
F39.0
sg9
I-5104
sg10
F477.0
sg11
g5
sg12
S'james.bannantine@enron.com'
p81
sg14
I-560222
sg15
I465
sg16
g5
sg17
I29
sg18
I864523
sg19
g5
sg20
g5
sg21
I5243487
sg22
I39
sg23
I0
sg24
I1757552
sg25
I477
sg26
I916197
sg27
I4046157
ssS'BLACHMAN JEREMY M'
p82
(dp83
g3
I2475
sg4
g5
sg6
I84208
sg7
I00
sg8
F27.0
sg9
g5
sg10
F1098546.0
sg11
I831809
sg12
S'jeremy.blachman@enron.com'
p84
sg14
g5
sg15
I2326
sg16
g5
sg17
I14
sg18
I272
sg19
g5
sg20
I850000
sg21
I954354
sg22
I25
sg23
I2
sg24
I189041
sg25
I248546
sg26
I2014835
sg27
I765313
ssS'DODSON KEITH'
p85
(dp86
g3
I176
sg4
g5
sg6
I28164
sg7
I00
sg8
F13.0
sg9
g5
sg10
F291003.0
sg11
g5
sg12
S'keith.dodson@enron.com'
p87
sg14
g5
sg15
I114
sg16
g5
sg17
I14
sg18
I774
sg19
g5
sg20
I70000
sg21
g5
sg22
I10
sg23
I3
sg24
g5
sg25
I221003
sg26
I319941
sg27
g5
ssS'SUNDE MARTIN'
p88
(dp89
g3
I2647
sg4
g5
sg6
g5
sg7
I00
sg8
F50.0
sg9
g5
sg10
F957486.0
sg11
I476451
sg12
S'marty.sunde@enron.com'
p90
sg14
g5
sg15
I2565
sg16
g5
sg17
I38
sg18
I111122
sg19
g5
sg20
I700000
sg21
I698920
sg22
I37
sg23
I13
sg24
I698920
sg25
I257486
sg26
I1545059
sg27
g5
ssS'SHAPIRO RICHARD S'
p91
(dp92
g3
I15149
sg4
g5
sg6
I137767
sg7
I00
sg8
F139.0
sg9
g5
sg10
F919076.0
sg11
g5
sg12
S'richard.shapiro@enron.com'
p93
sg14
g5
sg15
I4527
sg16
g5
sg17
I1215
sg18
I705
sg19
g5
sg20
I650000
sg21
I987001
sg22
I74
sg23
I65
sg24
I379164
sg25
I269076
sg26
I1057548
sg27
I607837
ssS'COLWELL WESLEY'
p94
(dp95
g3
I1758
sg4
I27610
sg6
I16514
sg7
I01
sg8
F251.0
sg9
I-144062
sg10
F1488542.0
sg11
g5
sg12
S'wes.colwell@enron.com'
p96
sg14
g5
sg15
I1132
sg16
g5
sg17
I40
sg18
I101740
sg19
g5
sg20
I1200000
sg21
I698242
sg22
I240
sg23
I11
sg24
I698242
sg25
I288542
sg26
I1490344
sg27
g5
ssS'MULLER MARK S'
p97
(dp98
g3
I136
sg4
I842924
sg6
g5
sg7
I00
sg8
F12.0
sg9
I-719000
sg10
F1351654.0
sg11
I1725545
sg12
S's..muller@enron.com'
p99
sg14
g5
sg15
I114
sg16
g5
sg17
I16
sg18
I947
sg19
g5
sg20
I1100000
sg21
I1416848
sg22
I12
sg23
I0
sg24
I360528
sg25
I251654
sg26
I3202070
sg27
I1056320
ssS'SHELBY REX'
p100
(dp101
g3
I225
sg4
g5
sg6
I22884
sg7
I01
sg8
F27.0
sg9
I-4167
sg10
F411844.0
sg11
g5
sg12
S'rex.shelby@enron.com'
p102
sg14
g5
sg15
I91
sg16
g5
sg17
I39
sg18
I1573324
sg19
g5
sg20
I200000
sg21
I2493616
sg22
I13
sg23
I14
sg24
I869220
sg25
I211844
sg26
I2003885
sg27
I1624396
ssS'JACKSON CHARLENE R'
p103
(dp104
g3
I258
sg4
g5
sg6
I10181
sg7
I00
sg8
F44.0
sg9
g5
sg10
F538558.0
sg11
g5
sg12
S'charlene.jackson@enron.com'
p105
sg14
g5
sg15
I117
sg16
g5
sg17
I56
sg18
I2435
sg19
g5
sg20
I250000
sg21
I725735
sg22
I25
sg23
I19
sg24
I540672
sg25
I288558
sg26
I551174
sg27
I185063
ssS'FREVERT MARK A'
p106
(dp107
g3
I3275
sg4
I6426990
sg6
I86987
sg7
I00
sg8
F248.0
sg9
I-3367011
sg10
F3060932.0
sg11
I1617011
sg12
S'mark.frevert@enron.com'
p108
sg14
g5
sg15
I2979
sg16
I2000000
sg17
I21
sg18
I7427621
sg19
g5
sg20
I2000000
sg21
I14622185
sg22
I242
sg23
I6
sg24
I4188667
sg25
I1060932
sg26
I17252530
sg27
I10433518
ssS'DEFFNER JOSEPH M'
p109
(dp110
g3
I714
sg4
g5
sg6
I41626
sg7
I00
sg8
F119.0
sg9
g5
sg10
F806121.0
sg11
I335349
sg12
S'joseph.deffner@enron.com'
p111
sg14
g5
sg15
I552
sg16
g5
sg17
I74
sg18
I25553
sg19
g5
sg20
I600000
sg21
I159211
sg22
I115
sg23
I4
sg24
I141833
sg25
I206121
sg26
I1208649
sg27
I17378
ssS'KAMINSKI WINCENTY J'
p112
(dp113
g3
I4607
sg4
g5
sg6
I83585
sg7
I00
sg8
F212.0
sg9
g5
sg10
F675101.0
sg11
I323466
sg12
S'vince.kaminski@enron.com'
p114
sg14
g5
sg15
I583
sg16
g5
sg17
I14368
sg18
I4669
sg19
g5
sg20
I400000
sg21
I976037
sg22
I41
sg23
I171
sg24
I126027
sg25
I275101
sg26
I1086821
sg27
I850010
ssS'WALLS JR ROBERT H'
p115
(dp116
g3
I671
sg4
g5
sg6
I50936
sg7
I00
sg8
F17.0
sg9
g5
sg10
F1207091.0
sg11
I540751
sg12
S'rob.walls@enron.com'
p117
sg14
g5
sg15
I215
sg16
g5
sg17
I146
sg18
I2
sg19
g5
sg20
I850000
sg21
I5898997
sg22
I17
sg23
I0
sg24
I1552453
sg25
I357091
sg26
I1798780
sg27
I4346544
ssS'KITCHEN LOUISE'
p118
(dp119
g3
I8305
sg4
g5
sg6
I5774
sg7
I00
sg8
F445.0
sg9
g5
sg10
F3371442.0
sg11
g5
sg12
S'louise.kitchen@enron.com'
p120
sg14
g5
sg15
I3669
sg16
g5
sg17
I1728
sg18
I93925
sg19
g5
sg20
I3100000
sg21
I547143
sg22
I251
sg23
I194
sg24
I466101
sg25
I271442
sg26
I3471141
sg27
I81042
ssS'CALGER CHRISTOPHER F'
p121
(dp122
g3
I2598
sg4
g5
sg6
I35818
sg7
I01
sg8
F224.0
sg9
I-262500
sg10
F1490189.0
sg11
I375304
sg12
S'christopher.calger@enron.com'
p123
sg14
g5
sg15
I2188
sg16
g5
sg17
I144
sg18
I486
sg19
g5
sg20
I1250000
sg21
I126027
sg22
I199
sg23
I25
sg24
I126027
sg25
I240189
sg26
I1639297
sg27
g5
ssS'COX DAVID'
p124
(dp125
g3
I102
sg4
g5
sg6
I27861
sg7
I00
sg8
F4.0
sg9
I-41250
sg10
F1114288.0
sg11
g5
sg12
S'chip.cox@enron.com'
p126
sg14
g5
sg15
I71
sg16
g5
sg17
I33
sg18
I494
sg19
g5
sg20
I800000
sg21
I495633
sg22
I0
sg23
I4
sg24
I378082
sg25
I314288
sg26
I1101393
sg27
I117551
ssS'SHANKMAN JEFFREY A'
p127
(dp128
g3
I3221
sg4
g5
sg6
I178979
sg7
I00
sg8
F177.0
sg9
g5
sg10
F2304110.0
sg11
I554422
sg12
S'jeffrey.shankman@enron.com'
p129
sg14
g5
sg15
I1730
sg16
g5
sg17
I2681
sg18
I1191
sg19
g5
sg20
I2000000
sg21
I2072035
sg22
I94
sg23
I83
sg24
I630137
sg25
I304110
sg26
I3038702
sg27
I1441898
ssS'WHALLEY LAWRENCE G'
p130
(dp131
g3
I6019
sg4
g5
sg6
I57838
sg7
I00
sg8
F210.0
sg9
g5
sg10
F3510364.0
sg11
I808346
sg12
S'greg.whalley@enron.com'
p132
sg14
g5
sg15
I3920
sg16
g5
sg17
I556
sg18
I301026
sg19
g5
sg20
I3000000
sg21
I6079137
sg22
I186
sg23
I24
sg24
I2796177
sg25
I510364
sg26
I4677574
sg27
I3282960
ssS'BUY RICHARD B'
p133
(dp134
g3
I3523
sg4
I649584
sg6
g5
sg7
I00
sg8
F227.0
sg9
I-694862
sg10
F1230546.0
sg11
I769862
sg12
S'rick.buy@enron.com'
p135
sg14
g5
sg15
I2333
sg16
g5
sg17
I1053
sg18
I400572
sg19
g5
sg20
I900000
sg21
I3444470
sg22
I156
sg23
I71
sg24
I901657
sg25
I330546
sg26
I2355702
sg27
I2542813
ssS'BERGSIEKER RICHARD P'
p136
(dp137
g3
I383
sg4
g5
sg6
I59175
sg7
I00
sg8
F4.0
sg9
I-485813
sg10
F437922.0
sg11
I180250
sg12
S'rick.bergsieker@enron.com'
p138
sg14
g5
sg15
I233
sg16
g5
sg17
I59
sg18
I427316
sg19
g5
sg20
I250000
sg21
I659249
sg22
I4
sg23
I0
sg24
I659249
sg25
I187922
sg26
I618850
sg27
g5
ssS'MCCONNELL MICHAEL S'
p139
(dp140
g3
I3329
sg4
g5
sg6
I81364
sg7
I00
sg8
F286.0
sg9
g5
sg10
F1465038.0
sg11
I554422
sg12
S'mike.mcconnell@enron.com'
p141
sg14
g5
sg15
I2189
sg16
g5
sg17
I2742
sg18
I540
sg19
g5
sg20
I1100000
sg21
I3101279
sg22
I92
sg23
I194
sg24
I1478269
sg25
I365038
sg26
I2101364
sg27
I1623010
ssS'DELAINEY DAVID W'
p142
(dp143
g3
I3093
sg4
g5
sg6
I86174
sg7
I01
sg8
F675.0
sg9
g5
sg10
F3365163.0
sg11
I1294981
sg12
S'david.delainey@enron.com'
p144
sg14
g5
sg15
I2097
sg16
g5
sg17
I3069
sg18
I1661
sg19
g5
sg20
I3000000
sg21
I3614261
sg22
I66
sg23
I609
sg24
I1323148
sg25
I365163
sg26
I4747979
sg27
I2291113
ssS'BIBI PHILIPPE A'
p145
(dp146
g3
I1607
sg4
g5
sg6
I38559
sg7
I00
sg8
F31.0
sg9
g5
sg10
F1213625.0
sg11
I369721
sg12
S'philippe.bibi@enron.com'
p147
sg14
g5
sg15
I1336
sg16
g5
sg17
I40
sg18
I425688
sg19
g5
sg20
I1000000
sg21
I1843816
sg22
I23
sg23
I8
sg24
I378082
sg25
I213625
sg26
I2047593
sg27
I1465734
ssS'FALLON JAMES B'
p148
(dp149
g3
I1755
sg4
g5
sg6
I95924
sg7
I00
sg8
F79.0
sg9
g5
sg10
F2804588.0
sg11
I374347
sg12
S'jim.fallon@enron.com'
p150
sg14
g5
sg15
I1604
sg16
g5
sg17
I75
sg18
I401481
sg19
g5
sg20
I2500000
sg21
I2332399
sg22
I42
sg23
I37
sg24
I1392142
sg25
I304588
sg26
I3676340
sg27
I940257
ssS'KOENIG MARK E'
p151
(dp152
g3
I2374
sg4
g5
sg6
I127017
sg7
I01
sg8
F68.0
sg9
g5
sg10
F1009946.0
sg11
I300000
sg12
S'mark.koenig@enron.com'
p153
sg14
g5
sg15
I2271
sg16
g5
sg17
I61
sg18
I150458
sg19
g5
sg20
I700000
sg21
I1920055
sg22
I53
sg23
I15
sg24
I1248318
sg25
I309946
sg26
I1587421
sg27
I671737
ssS'RIEKER PAULA H'
p154
(dp155
g3
I1328
sg4
I214678
sg6
I33271
sg7
I01
sg8
F83.0
sg9
I-100000
sg10
F949201.0
sg11
g5
sg12
S'paula.rieker@enron.com'
p156
sg14
g5
sg15
I1258
sg16
g5
sg17
I82
sg18
I1950
sg19
g5
sg20
I700000
sg21
I1918887
sg22
I35
sg23
I48
sg24
I283649
sg25
I249201
sg26
I1099100
sg27
I1635238
ssS'IZZO LAWRENCE L'
p157
(dp158
g3
I496
sg4
g5
sg6
I28093
sg7
I00
sg8
F33.0
sg9
g5
sg10
F85274.0
sg11
I312500
sg12
S'larry.izzo@enron.com'
p159
sg14
g5
sg15
I437
sg16
g5
sg17
I19
sg18
I1553729
sg19
g5
sg20
g5
sg21
I5819980
sg22
I28
sg23
I5
sg24
I3654808
sg25
I85274
sg26
I1979596
sg27
I2165172
ssS'UMANOFF ADAM S'
p160
(dp161
g3
I111
sg4
g5
sg6
I53122
sg7
I00
sg8
F12.0
sg9
g5
sg10
F1077339.0
sg11
g5
sg12
S'adam.umanoff@enron.com'
p162
sg14
g5
sg15
I41
sg16
g5
sg17
I18
sg18
g5
sg19
g5
sg20
I788750
sg21
g5
sg22
I12
sg23
I0
sg24
g5
sg25
I288589
sg26
I1130461
sg27
g5
ssS'LEFF DANIEL P'
p163
(dp164
g3
I2822
sg4
g5
sg6
g5
sg7
I00
sg8
F81.0
sg9
g5
sg10
F1273746.0
sg11
I1387399
sg12
S'dan.leff@enron.com'
p165
sg14
g5
sg15
I2672
sg16
g5
sg17
I63
sg18
I3083
sg19
g5
sg20
I1000000
sg21
I360528
sg22
I67
sg23
I14
sg24
I360528
sg25
I273746
sg26
I2664228
sg27
g5
ssS'TILNEY ELIZABETH A'
p166
(dp167
g3
I460
sg4
g5
sg6
g5
sg7
I00
sg8
F21.0
sg9
I-575000
sg10
F547338.0
sg11
I275000
sg12
S'elizabeth.tilney@enron.com'
p168
sg14
g5
sg15
I379
sg16
g5
sg17
I19
sg18
I152055
sg19
g5
sg20
I300000
sg21
I1168042
sg22
I10
sg23
I11
sg24
I576792
sg25
I247338
sg26
I399393
sg27
I591250
ssS'MARTIN AMANDA K'
p169
(dp170
g3
I1522
sg4
I85430
sg6
I8211
sg7
I00
sg8
F8.0
sg9
g5
sg10
F349487.0
sg11
I5145434
sg12
S'a..martin@enron.com'
p171
sg14
g5
sg15
I477
sg16
g5
sg17
I230
sg18
I2818454
sg19
g5
sg20
g5
sg21
I2070306
sg22
I8
sg23
I0
sg24
g5
sg25
I349487
sg26
I8407016
sg27
I2070306
ssS'KEAN STEVEN J'
p172
(dp173
g3
I12754
sg4
g5
sg6
I41953
sg7
I00
sg8
F527.0
sg9
g5
sg10
F1404338.0
sg11
I300000
sg12
S'steven.kean@enron.com'
p174
sg14
g5
sg15
I3639
sg16
g5
sg17
I6759
sg18
I1231
sg19
g5
sg20
I1000000
sg21
I6153642
sg22
I140
sg23
I387
sg24
I4131594
sg25
I404338
sg26
I1747522
sg27
I2022048
ssS'BECK SALLY W'
p175
(dp176
g3
I7315
sg4
g5
sg6
I37172
sg7
I00
sg8
F530.0
sg9
g5
sg10
F931330.0
sg11
g5
sg12
S'sally.beck@enron.com'
p177
sg14
g5
sg15
I2639
sg16
g5
sg17
I4343
sg18
I566
sg19
g5
sg20
I700000
sg21
I126027
sg22
I144
sg23
I386
sg24
I126027
sg25
I231330
sg26
I969068
sg27
g5
ssS'WASAFF GEORGE'
p178
(dp179
g3
I400
sg4
I831299
sg6
g5
sg7
I00
sg8
F29.0
sg9
I-583325
sg10
F584996.0
sg11
I200000
sg12
S'george.wasaff@enron.com'
p180
sg14
g5
sg15
I337
sg16
g5
sg17
I30
sg18
I1425
sg19
g5
sg20
I325000
sg21
I2056427
sg22
I22
sg23
I7
sg24
I388167
sg25
I259996
sg26
I1034395
sg27
I1668260
ssS'OLSON CINDY K'
p181
(dp182
g3
I1184
sg4
I77716
sg6
I63791
sg7
I00
sg8
F35.0
sg9
g5
sg10
F1079078.0
sg11
I100000
sg12
S'cindy.olson@enron.com'
p183
sg14
g5
sg15
I856
sg16
g5
sg17
I52
sg18
I972
sg19
g5
sg20
I750000
sg21
I2606763
sg22
I20
sg23
I15
sg24
I969729
sg25
I329078
sg26
I1321557
sg27
I1637034
ssS'PICKERING MARK R'
p184
(dp185
g3
I898
sg4
g5
sg6
I31653
sg7
I00
sg8
F7.0
sg9
g5
sg10
F955037.0
sg11
g5
sg12
S'mark.pickering@enron.com'
p186
sg14
g5
sg15
I728
sg16
I400000
sg17
I67
sg18
g5
sg19
g5
sg20
I300000
sg21
I28798
sg22
I7
sg23
I0
sg24
g5
sg25
I655037
sg26
I1386690
sg27
I28798
ssS'BELDEN TIMOTHY N'
p187
(dp188
g3
I7991
sg4
I2144013
sg6
I17355
sg7
I01
sg8
F336.0
sg9
I-2334434
sg10
F5463998.0
sg11
g5
sg12
S'tim.belden@enron.com'
p189
sg14
g5
sg15
I5521
sg16
g5
sg17
I484
sg18
I210698
sg19
g5
sg20
I5249999
sg21
I1110705
sg22
I228
sg23
I108
sg24
I157569
sg25
I213999
sg26
I5501630
sg27
I953136
ssS'ALLEN PHILLIP K'
p190
(dp191
g3
I2902
sg4
I2869717
sg6
I13868
sg7
I00
sg8
F112.0
sg9
I-3081055
sg10
F4376955.0
sg11
I304805
sg12
S'phillip.allen@enron.com'
p192
sg14
I-126027
sg15
I1407
sg16
g5
sg17
I2195
sg18
I152
sg19
g5
sg20
I4175000
sg21
I1729541
sg22
I47
sg23
I65
sg24
I126027
sg25
I201955
sg26
I4484442
sg27
I1729541
ssS'SHARP VICTORIA T'
p193
(dp194
g3
I3136
sg4
I187469
sg6
I116337
sg7
I00
sg8
F30.0
sg9
g5
sg10
F848146.0
sg11
I422158
sg12
S'vicki.sharp@enron.com'
p195
sg14
g5
sg15
I2477
sg16
g5
sg17
I136
sg18
I2401
sg19
g5
sg20
I600000
sg21
I494136
sg22
I24
sg23
I6
sg24
I213063
sg25
I248146
sg26
I1576511
sg27
I281073
ssS'HICKERSON GARY J'
p196
(dp197
g3
I1320
sg4
g5
sg6
I98849
sg7
I00
sg8
F41.0
sg9
g5
sg10
F1911788.0
sg11
I69223
sg12
S'gary.hickerson@enron.com'
p198
sg14
g5
sg15
I900
sg16
g5
sg17
I27
sg18
I1936
sg19
g5
sg20
I1700000
sg21
I441096
sg22
I40
sg23
I1
sg24
I441096
sg25
I211788
sg26
I2081796
sg27
g5
ssS'GLISAN JR BEN F'
p199
(dp200
g3
I873
sg4
g5
sg6
I125978
sg7
I01
sg8
F58.0
sg9
g5
sg10
F874975.0
sg11
I71023
sg12
S'ben.glisan@enron.com'
p201
sg14
g5
sg15
I874
sg16
g5
sg17
I16
sg18
I200308
sg19
g5
sg20
I600000
sg21
I778546
sg22
I52
sg23
I6
sg24
I393818
sg25
I274975
sg26
I1272284
sg27
I384728
ssS'DONAHUE JR JEFFREY M'
p202
(dp203
g3
I865
sg4
g5
sg6
I96268
sg7
I00
sg8
F199.0
sg9
I-300000
sg10
F1078601.0
sg11
g5
sg12
S'jeff.donahue@enron.com'
p204
sg14
g5
sg15
I772
sg16
g5
sg17
I22
sg18
I891
sg19
g5
sg20
I800000
sg21
I1080988
sg22
I188
sg23
I11
sg24
I315068
sg25
I278601
sg26
I875760
sg27
I765920
ssS'MCCLELLAN GEORGE'
p205
(dp206
g3
I1744
sg4
g5
sg6
I228763
sg7
I00
sg8
F52.0
sg9
I-125000
sg10
F1163413.0
sg11
g5
sg12
S'george.mcclellan@enron.com'
p207
sg14
g5
sg15
I1469
sg16
g5
sg17
I49
sg18
I51587
sg19
g5
sg20
I900000
sg21
I947861
sg22
I52
sg23
I0
sg24
I441096
sg25
I263413
sg26
I1318763
sg27
I506765
ssS'CARTER REBECCA C'
p208
(dp209
g3
I312
sg4
g5
sg6
g5
sg7
I00
sg8
F36.0
sg9
I-159792
sg10
F561809.0
sg11
I75000
sg12
S'rebecca.carter@enron.com'
p210
sg14
I-307301
sg15
I196
sg16
g5
sg17
I15
sg18
I540
sg19
g5
sg20
I300000
sg21
g5
sg22
I29
sg23
I7
sg24
I307301
sg25
I261809
sg26
I477557
sg27
g5
ss.